ccopy_reg
_reconstructor
p0
(csklearn.linear_model.base
LinearRegression
p1
c__builtin__
object
p2
Ntp3
Rp4
(dp5
S'normalize'
p6
I00
sS'n_jobs'
p7
I1
sS'rank_'
p8
I4
sS'fit_intercept'
p9
I01
sS'_residues'
p10
cnumpy.core.multiarray
scalar
p11
(cnumpy
dtype
p12
(S'f8'
p13
I0
I1
tp14
Rp15
(I3
S'<'
p16
NNNI-1
I-1
I0
tp17
bS'4\xc0\xf1\xec\x86\x00\xdd@'
p18
tp19
Rp20
sS'coef_'
p21
cnumpy.core.multiarray
_reconstruct
p22
(cnumpy
ndarray
p23
(I0
tp24
S'b'
p25
tp26
Rp27
(I1
(I4
tp28
g15
I00
S'\xb2\x9dr&\x00RB@\x00"\xbf\x86\'\xe4\xae?\x90~\xd3\x1b\x02n\xbb\xbf\x00\x01\xe0\x1e\xd0\x82\x93\xbf'
p29
tp30
bsS'_sklearn_version'
p31
S'0.19.1'
p32
sS'copy_X'
p33
I01
sS'intercept_'
p34
g11
(g15
S'\xa4\x02P\xc8\xdfQI@'
p35
tp36
Rp37
sS'singular_'
p38
g22
(g23
(I0
tp39
g25
tp40
Rp41
(I1
(I4
tp42
g15
I00
S'\xe0L\x97\x9d\xff\x9aQ@#e\xc8\xf9\x1b\xddL@\\\x9c\xb1U\xbb-L@\xaabf\xcf%uE@'
p43
tp44
bsb.